target datalayout = "e-m:e-p270:32:32-p271:32:32-p272:64:64-i64:64-i128:128-f80:128-n8:16:32:64-S128"
target triple = "x86_64-pc-linux-gnu"

; Function Attrs: nounwind uwtable
define internal i32 @qcelp_parse_packet(ptr noundef %0, ptr noundef %1, ptr noundef %2, ptr noundef %3, ptr noundef %4, ptr noundef %5, i32 noundef %6, i16 noundef zeroext %7, i32 noundef %8) #0 {
  %10 = alloca i32, align 4
  %11 = alloca ptr, align 8
  %12 = alloca ptr, align 8
  %13 = alloca ptr, align 8
  %14 = alloca ptr, align 8
  %15 = alloca ptr, align 8
  %16 = alloca ptr, align 8
  %17 = alloca i32, align 4
  %18 = alloca i16, align 2
  %19 = alloca i32, align 4
  store ptr %0, ptr %11, align 8, !tbaa !4
  store ptr %1, ptr %12, align 8, !tbaa !9
  store ptr %2, ptr %13, align 8, !tbaa !11
  store ptr %3, ptr %14, align 8, !tbaa !13
  store ptr %4, ptr %15, align 8, !tbaa !15
  store ptr %5, ptr %16, align 8, !tbaa !17
  store i32 %6, ptr %17, align 4, !tbaa !19
  store i16 %7, ptr %18, align 2, !tbaa !21
  store i32 %8, ptr %19, align 4, !tbaa !19
  %20 = load ptr, ptr %16, align 8, !tbaa !17
  %21 = icmp ne ptr %20, null
  br i1 %21, label %22, label %31

22:                                               ; preds = %9
  %23 = load ptr, ptr %11, align 8, !tbaa !4
  %24 = load ptr, ptr %12, align 8, !tbaa !9
  %25 = load ptr, ptr %13, align 8, !tbaa !11
  %26 = load ptr, ptr %14, align 8, !tbaa !13
  %27 = load ptr, ptr %15, align 8, !tbaa !15
  %28 = load ptr, ptr %16, align 8, !tbaa !17
  %29 = load i32, ptr %17, align 4, !tbaa !19
  %30 = call i32 @store_packet(ptr noundef %23, ptr noundef %24, ptr noundef %25, ptr noundef %26, ptr noundef %27, ptr noundef %28, i32 noundef %29)
  store i32 %30, ptr %10, align 4
  br label %40

31:                                               ; preds = %9
  %32 = load ptr, ptr %11, align 8, !tbaa !4
  %33 = load ptr, ptr %12, align 8, !tbaa !9
  %34 = load ptr, ptr %13, align 8, !tbaa !11
  %35 = load ptr, ptr %14, align 8, !tbaa !13
  %36 = load ptr, ptr %15, align 8, !tbaa !15
  %37 = load ptr, ptr %16, align 8, !tbaa !17
  %38 = load i32, ptr %17, align 4, !tbaa !19
  %39 = call i32 @return_stored_frame(ptr noundef %32, ptr noundef %33, ptr noundef %34, ptr noundef %35, ptr noundef %36, ptr noundef %37, i32 noundef %38)
  store i32 %39, ptr %10, align 4
  br label %40

40:                                               ; preds = %31, %22
  %41 = load i32, ptr %10, align 4
  ret i32 %41
}