; Function Attrs: nounwind uwtable
define internal range(i32 -2147483648, 2) i32 @qcelp_parse_packet(ptr noundef %0, ptr noundef captures(none) %1, ptr noundef readonly captures(none) %2, ptr noundef %3, ptr noundef captures(none) %4, ptr noundef readonly captures(address_is_null) %5, i32 noundef %6, i16 zeroext %7, i32 %8) #0 {
  %.not = icmp eq ptr %5, null
  br i1 %.not, label %12, label %10

10:                                               ; preds = %9
  %11 = tail call fastcc i32 @store_packet(ptr noundef %0, ptr noundef %1, ptr noundef %2, ptr noundef %3, ptr noundef %4, ptr noundef nonnull %5, i32 noundef %6)
  br label %14

12:                                               ; preds = %9
  %13 = tail call fastcc i32 @return_stored_frame(ptr noundef %0, ptr noundef %1, ptr noundef %2, ptr noundef %3, ptr noundef %4)
  br label %14

14:                                               ; preds = %12, %10
  %.0 = phi i32 [ %11, %10 ], [ %13, %12 ]
  ret i32 %.0
}